target datalayout = "e-m:e-p270:32:32-p271:32:32-p272:64:64-i64:64-i128:128-f80:128-n8:16:32:64-S128"
target triple = "x86_64-pc-linux-gnu"

; Function Attrs: mustprogress uwtable
define dso_local noundef float @_ZN3igl6opengl4glfw5imgui11ImGuiPlugin11pixel_ratioEv(ptr noundef nonnull align 8 dereferenceable(88) %0) #3 align 2 {
  %2 = alloca ptr, align 8
  %3 = alloca [2 x i32], align 4
  %4 = alloca [2 x i32], align 4
  %5 = alloca ptr, align 8
  store ptr %0, ptr %2, align 8, !tbaa !15
  call void @llvm.lifetime.start.p0(i64 8, ptr %3) #5
  call void @llvm.lifetime.start.p0(i64 8, ptr %4) #5
  call void @llvm.lifetime.start.p0(i64 8, ptr %5) #5
  %6 = call ptr @glfwGetCurrentContext()
  store ptr %6, ptr %5, align 8, !tbaa !105
  %7 = load ptr, ptr %5, align 8, !tbaa !105
  %8 = getelementptr inbounds [2 x i32], ptr %3, i64 0, i64 0
  %9 = getelementptr inbounds [2 x i32], ptr %3, i64 0, i64 1
  call void @glfwGetFramebufferSize(ptr noundef %7, ptr noundef %8, ptr noundef %9)
  %10 = load ptr, ptr %5, align 8, !tbaa !105
  %11 = getelementptr inbounds [2 x i32], ptr %4, i64 0, i64 0
  %12 = getelementptr inbounds [2 x i32], ptr %4, i64 0, i64 1
  call void @glfwGetWindowSize(ptr noundef %10, ptr noundef %11, ptr noundef %12)
  %13 = getelementptr inbounds [2 x i32], ptr %3, i64 0, i64 0
  %14 = load i32, ptr %13, align 4, !tbaa !98
  %15 = sitofp i32 %14 to float
  %16 = getelementptr inbounds [2 x i32], ptr %4, i64 0, i64 0
  %17 = load i32, ptr %16, align 4, !tbaa !98
  %18 = sitofp i32 %17 to float
  %19 = fdiv float %15, %18
  call void @llvm.lifetime.end.p0(i64 8, ptr %5) #5
  call void @llvm.lifetime.end.p0(i64 8, ptr %4) #5
  call void @llvm.lifetime.end.p0(i64 8, ptr %3) #5
  ret float %19
}