; Function Attrs: mustprogress uwtable
define dso_local noundef float @_ZN3igl6opengl4glfw5imgui11ImGuiPlugin11pixel_ratioEv(ptr noundef nonnull readnone align 8 captures(none) dereferenceable(88) %0) local_unnamed_addr #0 align 2 {
  %2 = alloca [2 x i32], align 4
  %3 = alloca [2 x i32], align 4
  call void @llvm.lifetime.start.p0(i64 8, ptr nonnull %2) #9
  call void @llvm.lifetime.start.p0(i64 8, ptr nonnull %3) #9
  %4 = tail call ptr @glfwGetCurrentContext()
  %5 = getelementptr inbounds nuw i8, ptr %2, i64 4
  call void @glfwGetFramebufferSize(ptr noundef %4, ptr noundef nonnull %2, ptr noundef nonnull %5)
  %6 = getelementptr inbounds nuw i8, ptr %3, i64 4
  call void @glfwGetWindowSize(ptr noundef %4, ptr noundef nonnull %3, ptr noundef nonnull %6)
  %7 = load i32, ptr %2, align 4, !tbaa !78
  %8 = sitofp i32 %7 to float
  %9 = load i32, ptr %3, align 4, !tbaa !78
  %10 = sitofp i32 %9 to float
  %11 = fdiv float %8, %10
  call void @llvm.lifetime.end.p0(i64 8, ptr nonnull %3) #9
  call void @llvm.lifetime.end.p0(i64 8, ptr nonnull %2) #9
  ret float %11
}